; Function Attrs: mustprogress uwtable
define noundef nonnull ptr @_ZN3re214SimplifyWalker7Concat2EPNS_6RegexpES2_NS1_10ParseFlagsE(ptr noundef %re1, ptr noundef %re2, i32 noundef %parse_flags) local_unnamed_addr #0 align 2 personality ptr @__gxx_personality_v0 {
entry:
  %call = tail call noalias noundef nonnull dereferenceable(40) ptr @_Znwm(i64 noundef 40) #18
  invoke void @_ZN3re26RegexpC1ENS_8RegexpOpENS0_10ParseFlagsE(ptr noundef nonnull align 8 dereferenceable(40) %call, i32 noundef 5, i32 noundef %parse_flags)
          to label %invoke.cont unwind label %lpad

invoke.cont:                                      ; preds = %entry
  %call.i = tail call noalias noundef nonnull dereferenceable(16) ptr @_Znam(i64 noundef 16) #18
  %0 = getelementptr inbounds i8, ptr %call, i64 8
  store ptr %call.i, ptr %0, align 8
  %nsub_.i = getelementptr inbounds i8, ptr %call, i64 6
  store i16 2, ptr %nsub_.i, align 2
  store ptr %re1, ptr %call.i, align 8
  %arrayidx2 = getelementptr inbounds i8, ptr %call.i, i64 8
  store ptr %re2, ptr %arrayidx2, align 8
  ret ptr %call

lpad:                                             ; preds = %entry
  %1 = landingpad { ptr, i32 }
          cleanup
  tail call void @_ZdlPv(ptr noundef nonnull %call) #15
  resume { ptr, i32 } %1
}